target datalayout = "e-m:e-p270:32:32-p271:32:32-p272:64:64-i64:64-i128:128-f80:128-n8:16:32:64-S128"
target triple = "x86_64-pc-linux-gnu"

%struct.archive_match = type { %struct.archive, i32, i32, %struct.match_list, %struct.match_list, i64, i32, i64, i64, i32, i64, i64, i32, i64, i64, i32, i64, i64, %struct.archive_rb_tree, %struct.entry_list, %struct.id_array, %struct.id_array, %struct.match_list, %struct.match_list }
%struct.archive = type { i32, i32, ptr, i32, ptr, i32, i32, ptr, %struct.archive_string, ptr, i32, i32, ptr, ptr, i64, i64, i64, i8, i64 }
%struct.archive_string = type { ptr, i64, i64 }
%struct.archive_rb_tree = type { ptr, ptr }
%struct.entry_list = type { ptr, ptr, i32 }
%struct.id_array = type { i64, i64, ptr }
%struct.match_list = type { ptr, ptr, i32, i32, ptr, i32 }
%struct.match = type { ptr, i32, %struct.archive_mstring }
%struct.archive_mstring = type { %struct.archive_string, %struct.archive_string, %struct.archive_wstring, %struct.archive_string, i32 }
%struct.archive_wstring = type { ptr, i64, i64 }

@.str.16 = private unnamed_addr constant [42 x i8] c"archive_match_unmatched_inclusions_next_w\00", align 1
@.str.32 = private unnamed_addr constant [10 x i8] c"No memory\00", align 1
@.str.33 = private unnamed_addr constant [1 x i8] zeroinitializer, align 1
@.str.34 = private unnamed_addr constant [1 x i32] zeroinitializer, align 4

; Function Attrs: nounwind uwtable
define internal i32 @error_nomem(ptr noundef %0) #0 {
  %2 = alloca ptr, align 8
  store ptr %0, ptr %2, align 8, !tbaa !4
  %3 = load ptr, ptr %2, align 8, !tbaa !4
  %4 = getelementptr inbounds nuw %struct.archive_match, ptr %3, i32 0, i32 0
  call void (ptr, i32, ptr, ...) @archive_set_error(ptr noundef %4, i32 noundef 12, ptr noundef @.str.32)
  %5 = load ptr, ptr %2, align 8, !tbaa !4
  %6 = getelementptr inbounds nuw %struct.archive_match, ptr %5, i32 0, i32 0
  %7 = getelementptr inbounds nuw %struct.archive, ptr %6, i32 0, i32 1
  store i32 32768, ptr %7, align 4, !tbaa !29
  ret i32 -30
}

; Function Attrs: nounwind uwtable
define internal i32 @match_list_unmatched_inclusions_next(ptr noundef %0, ptr noundef %1, i32 noundef %2, ptr noundef %3) #0 {
  %5 = alloca i32, align 4
  %6 = alloca ptr, align 8
  %7 = alloca ptr, align 8
  %8 = alloca i32, align 4
  %9 = alloca ptr, align 8
  %10 = alloca ptr, align 8
  %11 = alloca i32, align 4
  %12 = alloca i32, align 4
  %13 = alloca ptr, align 8
  %14 = alloca ptr, align 8
  store ptr %0, ptr %6, align 8, !tbaa !4
  store ptr %1, ptr %7, align 8, !tbaa !31
  store i32 %2, ptr %8, align 4, !tbaa !43
  store ptr %3, ptr %9, align 8, !tbaa !62
  call void @llvm.lifetime.start.p0(i64 8, ptr %10) #9
  %15 = load ptr, ptr %9, align 8, !tbaa !62
  store ptr null, ptr %15, align 8, !tbaa !62
  %16 = load ptr, ptr %7, align 8, !tbaa !31
  %17 = getelementptr inbounds nuw %struct.match_list, ptr %16, i32 0, i32 5
  %18 = load i32, ptr %17, align 8, !tbaa !105
  %19 = icmp ne i32 %18, 0
  br i1 %19, label %20, label %23

20:                                               ; preds = %4
  %21 = load ptr, ptr %7, align 8, !tbaa !31
  %22 = getelementptr inbounds nuw %struct.match_list, ptr %21, i32 0, i32 5
  store i32 0, ptr %22, align 8, !tbaa !105
  store i32 1, ptr %5, align 4
  store i32 1, ptr %11, align 4
  br label %129

23:                                               ; preds = %4
  %24 = load ptr, ptr %7, align 8, !tbaa !31
  %25 = getelementptr inbounds nuw %struct.match_list, ptr %24, i32 0, i32 4
  %26 = load ptr, ptr %25, align 8, !tbaa !106
  %27 = icmp eq ptr %26, null
  br i1 %27, label %28, label %40

28:                                               ; preds = %23
  %29 = load ptr, ptr %7, align 8, !tbaa !31
  %30 = getelementptr inbounds nuw %struct.match_list, ptr %29, i32 0, i32 3
  %31 = load i32, ptr %30, align 4, !tbaa !107
  %32 = icmp eq i32 %31, 0
  br i1 %32, label %33, label %34

33:                                               ; preds = %28
  store i32 1, ptr %5, align 4
  store i32 1, ptr %11, align 4
  br label %129

34:                                               ; preds = %28
  %35 = load ptr, ptr %7, align 8, !tbaa !31
  %36 = getelementptr inbounds nuw %struct.match_list, ptr %35, i32 0, i32 0
  %37 = load ptr, ptr %36, align 8, !tbaa !33
  %38 = load ptr, ptr %7, align 8, !tbaa !31
  %39 = getelementptr inbounds nuw %struct.match_list, ptr %38, i32 0, i32 4
  store ptr %37, ptr %39, align 8, !tbaa !106
  br label %40

40:                                               ; preds = %34, %23
  %41 = load ptr, ptr %7, align 8, !tbaa !31
  %42 = getelementptr inbounds nuw %struct.match_list, ptr %41, i32 0, i32 4
  %43 = load ptr, ptr %42, align 8, !tbaa !106
  store ptr %43, ptr %10, align 8, !tbaa !46
  br label %44

44:                                               ; preds = %122, %40
  %45 = load ptr, ptr %10, align 8, !tbaa !46
  %46 = icmp ne ptr %45, null
  br i1 %46, label %47, label %126

47:                                               ; preds = %44
  call void @llvm.lifetime.start.p0(i64 4, ptr %12) #9
  %48 = load ptr, ptr %10, align 8, !tbaa !46
  %49 = getelementptr inbounds nuw %struct.match, ptr %48, i32 0, i32 1
  %50 = load i32, ptr %49, align 8, !tbaa !64
  %51 = icmp ne i32 %50, 0
  br i1 %51, label %52, label %53

52:                                               ; preds = %47
  store i32 4, ptr %11, align 4
  br label %120

53:                                               ; preds = %47
  %54 = load i32, ptr %8, align 4, !tbaa !43
  %55 = icmp ne i32 %54, 0
  br i1 %55, label %56, label %81

56:                                               ; preds = %53
  call void @llvm.lifetime.start.p0(i64 8, ptr %13) #9
  %57 = load ptr, ptr %6, align 8, !tbaa !4
  %58 = getelementptr inbounds nuw %struct.archive_match, ptr %57, i32 0, i32 0
  %59 = load ptr, ptr %10, align 8, !tbaa !46
  %60 = getelementptr inbounds nuw %struct.match, ptr %59, i32 0, i32 2
  %61 = call i32 @archive_mstring_get_mbs(ptr noundef %58, ptr noundef %60, ptr noundef %13)
  store i32 %61, ptr %12, align 4, !tbaa !43
  %62 = load i32, ptr %12, align 4, !tbaa !43
  %63 = icmp slt i32 %62, 0
  br i1 %63, label %64, label %71

64:                                               ; preds = %56
  %65 = call ptr @__errno_location() #12
  %66 = load i32, ptr %65, align 4, !tbaa !43
  %67 = icmp eq i32 %66, 12
  br i1 %67, label %68, label %71

68:                                               ; preds = %64
  %69 = load ptr, ptr %6, align 8, !tbaa !4
  %70 = call i32 @error_nomem(ptr noundef %69)
  store i32 %70, ptr %5, align 4
  store i32 1, ptr %11, align 4
  br label %78

71:                                               ; preds = %64, %56
  %72 = load ptr, ptr %13, align 8, !tbaa !94
  %73 = icmp eq ptr %72, null
  br i1 %73, label %74, label %75

74:                                               ; preds = %71
  store ptr @.str.33, ptr %13, align 8, !tbaa !94
  br label %75

75:                                               ; preds = %74, %71
  %76 = load ptr, ptr %13, align 8, !tbaa !94
  %77 = load ptr, ptr %9, align 8, !tbaa !62
  store ptr %76, ptr %77, align 8, !tbaa !62
  store i32 0, ptr %11, align 4
  br label %78

78:                                               ; preds = %75, %68
  call void @llvm.lifetime.end.p0(i64 8, ptr %13) #9
  %79 = load i32, ptr %11, align 4
  switch i32 %79, label %120 [
    i32 0, label %80
  ]

80:                                               ; preds = %78
  br label %106

81:                                               ; preds = %53
  call void @llvm.lifetime.start.p0(i64 8, ptr %14) #9
  %82 = load ptr, ptr %6, align 8, !tbaa !4
  %83 = getelementptr inbounds nuw %struct.archive_match, ptr %82, i32 0, i32 0
  %84 = load ptr, ptr %10, align 8, !tbaa !46
  %85 = getelementptr inbounds nuw %struct.match, ptr %84, i32 0, i32 2
  %86 = call i32 @archive_mstring_get_wcs(ptr noundef %83, ptr noundef %85, ptr noundef %14)
  store i32 %86, ptr %12, align 4, !tbaa !43
  %87 = load i32, ptr %12, align 4, !tbaa !43
  %88 = icmp slt i32 %87, 0
  br i1 %88, label %89, label %96

89:                                               ; preds = %81
  %90 = call ptr @__errno_location() #12
  %91 = load i32, ptr %90, align 4, !tbaa !43
  %92 = icmp eq i32 %91, 12
  br i1 %92, label %93, label %96

93:                                               ; preds = %89
  %94 = load ptr, ptr %6, align 8, !tbaa !4
  %95 = call i32 @error_nomem(ptr noundef %94)
  store i32 %95, ptr %5, align 4
  store i32 1, ptr %11, align 4
  br label %103

96:                                               ; preds = %89, %81
  %97 = load ptr, ptr %14, align 8, !tbaa !96
  %98 = icmp eq ptr %97, null
  br i1 %98, label %99, label %100

99:                                               ; preds = %96
  store ptr @.str.34, ptr %14, align 8, !tbaa !96
  br label %100

100:                                              ; preds = %99, %96
  %101 = load ptr, ptr %14, align 8, !tbaa !96
  %102 = load ptr, ptr %9, align 8, !tbaa !62
  store ptr %101, ptr %102, align 8, !tbaa !62
  store i32 0, ptr %11, align 4
  br label %103

103:                                              ; preds = %100, %93
  call void @llvm.lifetime.end.p0(i64 8, ptr %14) #9
  %104 = load i32, ptr %11, align 4
  switch i32 %104, label %120 [
    i32 0, label %105
  ]

105:                                              ; preds = %103
  br label %106

106:                                              ; preds = %105, %80
  %107 = load ptr, ptr %10, align 8, !tbaa !46
  %108 = getelementptr inbounds nuw %struct.match, ptr %107, i32 0, i32 0
  %109 = load ptr, ptr %108, align 8, !tbaa !47
  %110 = load ptr, ptr %7, align 8, !tbaa !31
  %111 = getelementptr inbounds nuw %struct.match_list, ptr %110, i32 0, i32 4
  store ptr %109, ptr %111, align 8, !tbaa !106
  %112 = load ptr, ptr %7, align 8, !tbaa !31
  %113 = getelementptr inbounds nuw %struct.match_list, ptr %112, i32 0, i32 4
  %114 = load ptr, ptr %113, align 8, !tbaa !106
  %115 = icmp eq ptr %114, null
  br i1 %115, label %116, label %119

116:                                              ; preds = %106
  %117 = load ptr, ptr %7, align 8, !tbaa !31
  %118 = getelementptr inbounds nuw %struct.match_list, ptr %117, i32 0, i32 5
  store i32 1, ptr %118, align 8, !tbaa !105
  br label %119

119:                                              ; preds = %116, %106
  store i32 0, ptr %5, align 4
  store i32 1, ptr %11, align 4
  br label %120

120:                                              ; preds = %119, %103, %78, %52
  call void @llvm.lifetime.end.p0(i64 4, ptr %12) #9
  %121 = load i32, ptr %11, align 4
  switch i32 %121, label %129 [
    i32 4, label %122
  ]

122:                                              ; preds = %120
  %123 = load ptr, ptr %10, align 8, !tbaa !46
  %124 = getelementptr inbounds nuw %struct.match, ptr %123, i32 0, i32 0
  %125 = load ptr, ptr %124, align 8, !tbaa !47
  store ptr %125, ptr %10, align 8, !tbaa !46
  br label %44, !llvm.loop !108

126:                                              ; preds = %44
  %127 = load ptr, ptr %7, align 8, !tbaa !31
  %128 = getelementptr inbounds nuw %struct.match_list, ptr %127, i32 0, i32 4
  store ptr null, ptr %128, align 8, !tbaa !106
  store i32 1, ptr %5, align 4
  store i32 1, ptr %11, align 4
  br label %129

129:                                              ; preds = %126, %120, %33, %20
  call void @llvm.lifetime.end.p0(i64 8, ptr %10) #9
  %130 = load i32, ptr %5, align 4
  ret i32 %130
}

; Function Attrs: nounwind uwtable
define dso_local i32 @archive_match_path_unmatched_inclusions_next_w(ptr noundef %0, ptr noundef %1) #0 {
  %3 = alloca i32, align 4
  %4 = alloca ptr, align 8
  %5 = alloca ptr, align 8
  %6 = alloca ptr, align 8
  %7 = alloca ptr, align 8
  %8 = alloca i32, align 4
  %9 = alloca i32, align 4
  %10 = alloca i32, align 4
  store ptr %0, ptr %4, align 8, !tbaa !41
  store ptr %1, ptr %5, align 8, !tbaa !109
  call void @llvm.lifetime.start.p0(i64 8, ptr %6) #9
  call void @llvm.lifetime.start.p0(i64 8, ptr %7) #9
  call void @llvm.lifetime.start.p0(i64 4, ptr %8) #9
  br label %11

11:                                               ; preds = %2
  call void @llvm.lifetime.start.p0(i64 4, ptr %9) #9
  %12 = load ptr, ptr %4, align 8, !tbaa !41
  %13 = call i32 @__archive_check_magic(ptr noundef %12, i32 noundef 212668873, i32 noundef 1, ptr noundef @.str.16)
  store i32 %13, ptr %9, align 4, !tbaa !43
  %14 = load i32, ptr %9, align 4, !tbaa !43
  %15 = icmp eq i32 %14, -30
  br i1 %15, label %16, label %17

16:                                               ; preds = %11
  store i32 -30, ptr %3, align 4
  store i32 1, ptr %10, align 4
  br label %18

17:                                               ; preds = %11
  store i32 0, ptr %10, align 4
  br label %18

18:                                               ; preds = %17, %16
  call void @llvm.lifetime.end.p0(i64 4, ptr %9) #9
  %19 = load i32, ptr %10, align 4
  switch i32 %19, label %31 [
    i32 0, label %20
  ]

20:                                               ; preds = %18
  br label %21

21:                                               ; preds = %20
  br label %22

22:                                               ; preds = %21
  %23 = load ptr, ptr %4, align 8, !tbaa !41
  store ptr %23, ptr %6, align 8, !tbaa !4
  %24 = load ptr, ptr %6, align 8, !tbaa !4
  %25 = load ptr, ptr %6, align 8, !tbaa !4
  %26 = getelementptr inbounds nuw %struct.archive_match, ptr %25, i32 0, i32 4
  %27 = call i32 @match_list_unmatched_inclusions_next(ptr noundef %24, ptr noundef %26, i32 noundef 0, ptr noundef %7)
  store i32 %27, ptr %8, align 4, !tbaa !43
  %28 = load ptr, ptr %7, align 8, !tbaa !62
  %29 = load ptr, ptr %5, align 8, !tbaa !109
  store ptr %28, ptr %29, align 8, !tbaa !96
  %30 = load i32, ptr %8, align 4, !tbaa !43
  store i32 %30, ptr %3, align 4
  store i32 1, ptr %10, align 4
  br label %31

31:                                               ; preds = %22, %18
  call void @llvm.lifetime.end.p0(i64 4, ptr %8) #9
  call void @llvm.lifetime.end.p0(i64 8, ptr %7) #9
  call void @llvm.lifetime.end.p0(i64 8, ptr %6) #9
  %32 = load i32, ptr %3, align 4
  ret i32 %32
}